target datalayout = "e-m:e-p270:32:32-p271:32:32-p272:64:64-i64:64-i128:128-f80:128-n8:16:32:64-S128"
target triple = "x86_64-unknown-linux-gnu"

%"struct.fmt::v9::detail::singleton" = type { i8, i8 }

; Function Attrs: mustprogress nounwind uwtable
define linkonce_odr dso_local noundef zeroext i1 @_ZN3fmt2v96detail12is_printableEtPKNS1_9singletonEmPKhS6_m(i16 noundef zeroext %x, ptr noundef %singletons, i64 noundef %singletons_size, ptr noundef %singleton_lowers, ptr noundef %normal, i64 noundef %normal_size) #4 comdat {
entry:
  %retval = alloca i1, align 1
  %x.addr = alloca i16, align 2
  %singletons.addr = alloca ptr, align 8
  %singletons_size.addr = alloca i64, align 8
  %singleton_lowers.addr = alloca ptr, align 8
  %normal.addr = alloca ptr, align 8
  %normal_size.addr = alloca i64, align 8
  %upper = alloca i32, align 4
  %lower_start = alloca i32, align 4
  %i = alloca i64, align 8
  %s = alloca %"struct.fmt::v9::detail::singleton", align 1
  %lower_end = alloca i32, align 4
  %j = alloca i32, align 4
  %xsigned = alloca i32, align 4
  %current = alloca i8, align 1
  %i23 = alloca i64, align 8
  %v = alloca i32, align 4
  %len = alloca i32, align 4
  store i16 %x, ptr %x.addr, align 2
  store ptr %singletons, ptr %singletons.addr, align 8
  store i64 %singletons_size, ptr %singletons_size.addr, align 8
  store ptr %singleton_lowers, ptr %singleton_lowers.addr, align 8
  store ptr %normal, ptr %normal.addr, align 8
  store i64 %normal_size, ptr %normal_size.addr, align 8
  %0 = load i16, ptr %x.addr, align 2
  %conv = zext i16 %0 to i32
  %shr = ashr i32 %conv, 8
  store i32 %shr, ptr %upper, align 4
  store i32 0, ptr %lower_start, align 4
  store i64 0, ptr %i, align 8
  br label %for.cond

for.cond:                                         ; preds = %for.inc19, %entry
  %1 = load i64, ptr %i, align 8
  %2 = load i64, ptr %singletons_size.addr, align 8
  %cmp = icmp ult i64 %1, %2
  br i1 %cmp, label %for.body, label %for.end21

for.body:                                         ; preds = %for.cond
  %3 = load ptr, ptr %singletons.addr, align 8
  %4 = load i64, ptr %i, align 8
  %arrayidx = getelementptr inbounds %"struct.fmt::v9::detail::singleton", ptr %3, i64 %4
  call void @llvm.memcpy.p0.p0.i64(ptr align 1 %s, ptr align 1 %arrayidx, i64 2, i1 false)
  %5 = load i32, ptr %lower_start, align 4
  %lower_count = getelementptr inbounds %"struct.fmt::v9::detail::singleton", ptr %s, i32 0, i32 1
  %6 = load i8, ptr %lower_count, align 1
  %conv1 = zext i8 %6 to i32
  %add = add nsw i32 %5, %conv1
  store i32 %add, ptr %lower_end, align 4
  %7 = load i32, ptr %upper, align 4
  %upper2 = getelementptr inbounds %"struct.fmt::v9::detail::singleton", ptr %s, i32 0, i32 0
  %8 = load i8, ptr %upper2, align 1
  %conv3 = zext i8 %8 to i32
  %cmp4 = icmp slt i32 %7, %conv3
  br i1 %cmp4, label %if.then, label %if.end

if.then:                                          ; preds = %for.body
  br label %for.end21

if.end:                                           ; preds = %for.body
  %9 = load i32, ptr %upper, align 4
  %upper5 = getelementptr inbounds %"struct.fmt::v9::detail::singleton", ptr %s, i32 0, i32 0
  %10 = load i8, ptr %upper5, align 1
  %conv6 = zext i8 %10 to i32
  %cmp7 = icmp eq i32 %9, %conv6
  br i1 %cmp7, label %if.then8, label %if.end18

if.then8:                                         ; preds = %if.end
  %11 = load i32, ptr %lower_start, align 4
  store i32 %11, ptr %j, align 4
  br label %for.cond9

for.cond9:                                        ; preds = %for.inc, %if.then8
  %12 = load i32, ptr %j, align 4
  %13 = load i32, ptr %lower_end, align 4
  %cmp10 = icmp slt i32 %12, %13
  br i1 %cmp10, label %for.body11, label %for.end

for.body11:                                       ; preds = %for.cond9
  %14 = load ptr, ptr %singleton_lowers.addr, align 8
  %15 = load i32, ptr %j, align 4
  %idxprom = sext i32 %15 to i64
  %arrayidx12 = getelementptr inbounds i8, ptr %14, i64 %idxprom
  %16 = load i8, ptr %arrayidx12, align 1
  %conv13 = zext i8 %16 to i32
  %17 = load i16, ptr %x.addr, align 2
  %conv14 = zext i16 %17 to i32
  %and = and i32 %conv14, 255
  %cmp15 = icmp eq i32 %conv13, %and
  br i1 %cmp15, label %if.then16, label %if.end17

if.then16:                                        ; preds = %for.body11
  store i1 false, ptr %retval, align 1
  br label %return

if.end17:                                         ; preds = %for.body11
  br label %for.inc

for.inc:                                          ; preds = %if.end17
  %18 = load i32, ptr %j, align 4
  %inc = add nsw i32 %18, 1
  store i32 %inc, ptr %j, align 4
  br label %for.cond9, !llvm.loop !10

for.end:                                          ; preds = %for.cond9
  br label %if.end18

if.end18:                                         ; preds = %for.end, %if.end
  %19 = load i32, ptr %lower_end, align 4
  store i32 %19, ptr %lower_start, align 4
  br label %for.inc19

for.inc19:                                        ; preds = %if.end18
  %20 = load i64, ptr %i, align 8
  %inc20 = add i64 %20, 1
  store i64 %inc20, ptr %i, align 8
  br label %for.cond, !llvm.loop !11

for.end21:                                        ; preds = %if.then, %for.cond
  %21 = load i16, ptr %x.addr, align 2
  %conv22 = zext i16 %21 to i32
  store i32 %conv22, ptr %xsigned, align 4
  store i8 1, ptr %current, align 1
  store i64 0, ptr %i23, align 8
  br label %for.cond24

for.cond24:                                       ; preds = %for.inc38, %for.end21
  %22 = load i64, ptr %i23, align 8
  %23 = load i64, ptr %normal_size.addr, align 8
  %cmp25 = icmp ult i64 %22, %23
  br i1 %cmp25, label %for.body26, label %for.end40

for.body26:                                       ; preds = %for.cond24
  %24 = load ptr, ptr %normal.addr, align 8
  %25 = load i64, ptr %i23, align 8
  %arrayidx27 = getelementptr inbounds i8, ptr %24, i64 %25
  %26 = load i8, ptr %arrayidx27, align 1
  %conv28 = zext i8 %26 to i32
  store i32 %conv28, ptr %v, align 4
  %27 = load i32, ptr %v, align 4
  %and29 = and i32 %27, 128
  %cmp30 = icmp ne i32 %and29, 0
  br i1 %cmp30, label %cond.true, label %cond.false

cond.true:                                        ; preds = %for.body26
  %28 = load i32, ptr %v, align 4
  %and31 = and i32 %28, 127
  %shl = shl i32 %and31, 8
  %29 = load ptr, ptr %normal.addr, align 8
  %30 = load i64, ptr %i23, align 8
  %inc32 = add i64 %30, 1
  store i64 %inc32, ptr %i23, align 8
  %arrayidx33 = getelementptr inbounds i8, ptr %29, i64 %inc32
  %31 = load i8, ptr %arrayidx33, align 1
  %conv34 = zext i8 %31 to i32
  %or = or i32 %shl, %conv34
  br label %cond.end

cond.false:                                       ; preds = %for.body26
  %32 = load i32, ptr %v, align 4
  br label %cond.end

cond.end:                                         ; preds = %cond.false, %cond.true
  %cond = phi i32 [ %or, %cond.true ], [ %32, %cond.false ]
  store i32 %cond, ptr %len, align 4
  %33 = load i32, ptr %len, align 4
  %34 = load i32, ptr %xsigned, align 4
  %sub = sub nsw i32 %34, %33
  store i32 %sub, ptr %xsigned, align 4
  %35 = load i32, ptr %xsigned, align 4
  %cmp35 = icmp slt i32 %35, 0
  br i1 %cmp35, label %if.then36, label %if.end37

if.then36:                                        ; preds = %cond.end
  br label %for.end40

if.end37:                                         ; preds = %cond.end
  %36 = load i8, ptr %current, align 1
  %tobool = trunc i8 %36 to i1
  %lnot = xor i1 %tobool, true
  %frombool = zext i1 %lnot to i8
  store i8 %frombool, ptr %current, align 1
  br label %for.inc38

for.inc38:                                        ; preds = %if.end37
  %37 = load i64, ptr %i23, align 8
  %inc39 = add i64 %37, 1
  store i64 %inc39, ptr %i23, align 8
  br label %for.cond24, !llvm.loop !12

for.end40:                                        ; preds = %if.then36, %for.cond24
  %38 = load i8, ptr %current, align 1
  %tobool41 = trunc i8 %38 to i1
  store i1 %tobool41, ptr %retval, align 1
  br label %return

return:                                           ; preds = %for.end40, %if.then16
  %39 = load i1, ptr %retval, align 1
  ret i1 %39
}

; Function Attrs: mustprogress uwtable
define dso_local noundef zeroext i1 @_ZN3fmt2v96detail12is_printableEj(i32 noundef %cp) #3 {
entry:
  %retval = alloca i1, align 1
  %cp.addr = alloca i32, align 4
  %lower = alloca i16, align 2
  store i32 %cp, ptr %cp.addr, align 4
  %0 = load i32, ptr %cp.addr, align 4
  %conv = trunc i32 %0 to i16
  store i16 %conv, ptr %lower, align 2
  %1 = load i32, ptr %cp.addr, align 4
  %cmp = icmp ult i32 %1, 65536
  br i1 %cmp, label %if.then, label %if.end

if.then:                                          ; preds = %entry
  %2 = load i16, ptr %lower, align 2
  %call = call noundef zeroext i1 @_ZN3fmt2v96detail12is_printableEtPKNS1_9singletonEmPKhS6_m(i16 noundef zeroext %2, ptr noundef @_ZZN3fmt2v96detail12is_printableEjE11singletons0, i64 noundef 41, ptr noundef @_ZZN3fmt2v96detail12is_printableEjE17singletons0_lower, ptr noundef @_ZZN3fmt2v96detail12is_printableEjE7normal0, i64 noundef 309)
  store i1 %call, ptr %retval, align 1
  br label %return

if.end:                                           ; preds = %entry
  %3 = load i32, ptr %cp.addr, align 4
  %cmp1 = icmp ult i32 %3, 131072
  br i1 %cmp1, label %if.then2, label %if.end4

if.then2:                                         ; preds = %if.end
  %4 = load i16, ptr %lower, align 2
  %call3 = call noundef zeroext i1 @_ZN3fmt2v96detail12is_printableEtPKNS1_9singletonEmPKhS6_m(i16 noundef zeroext %4, ptr noundef @_ZZN3fmt2v96detail12is_printableEjE11singletons1, i64 noundef 38, ptr noundef @_ZZN3fmt2v96detail12is_printableEjE17singletons1_lower, ptr noundef @_ZZN3fmt2v96detail12is_printableEjE7normal1, i64 noundef 419)
  store i1 %call3, ptr %retval, align 1
  br label %return

if.end4:                                          ; preds = %if.end
  %5 = load i32, ptr %cp.addr, align 4
  %cmp5 = icmp ule i32 173790, %5
  br i1 %cmp5, label %land.lhs.true, label %if.end8

land.lhs.true:                                    ; preds = %if.end4
  %6 = load i32, ptr %cp.addr, align 4
  %cmp6 = icmp ult i32 %6, 173824
  br i1 %cmp6, label %if.then7, label %if.end8

if.then7:                                         ; preds = %land.lhs.true
  store i1 false, ptr %retval, align 1
  br label %return

if.end8:                                          ; preds = %land.lhs.true, %if.end4
  %7 = load i32, ptr %cp.addr, align 4
  %cmp9 = icmp ule i32 177973, %7
  br i1 %cmp9, label %land.lhs.true10, label %if.end13

land.lhs.true10:                                  ; preds = %if.end8
  %8 = load i32, ptr %cp.addr, align 4
  %cmp11 = icmp ult i32 %8, 177984
  br i1 %cmp11, label %if.then12, label %if.end13

if.then12:                                        ; preds = %land.lhs.true10
  store i1 false, ptr %retval, align 1
  br label %return

if.end13:                                         ; preds = %land.lhs.true10, %if.end8
  %9 = load i32, ptr %cp.addr, align 4
  %cmp14 = icmp ule i32 178206, %9
  br i1 %cmp14, label %land.lhs.true15, label %if.end18

land.lhs.true15:                                  ; preds = %if.end13
  %10 = load i32, ptr %cp.addr, align 4
  %cmp16 = icmp ult i32 %10, 178208
  br i1 %cmp16, label %if.then17, label %if.end18

if.then17:                                        ; preds = %land.lhs.true15
  store i1 false, ptr %retval, align 1
  br label %return

if.end18:                                         ; preds = %land.lhs.true15, %if.end13
  %11 = load i32, ptr %cp.addr, align 4
  %cmp19 = icmp ule i32 183970, %11
  br i1 %cmp19, label %land.lhs.true20, label %if.end23

land.lhs.true20:                                  ; preds = %if.end18
  %12 = load i32, ptr %cp.addr, align 4
  %cmp21 = icmp ult i32 %12, 183984
  br i1 %cmp21, label %if.then22, label %if.end23

if.then22:                                        ; preds = %land.lhs.true20
  store i1 false, ptr %retval, align 1
  br label %return

if.end23:                                         ; preds = %land.lhs.true20, %if.end18
  %13 = load i32, ptr %cp.addr, align 4
  %cmp24 = icmp ule i32 191457, %13
  br i1 %cmp24, label %land.lhs.true25, label %if.end28

land.lhs.true25:                                  ; preds = %if.end23
  %14 = load i32, ptr %cp.addr, align 4
  %cmp26 = icmp ult i32 %14, 194560
  br i1 %cmp26, label %if.then27, label %if.end28

if.then27:                                        ; preds = %land.lhs.true25
  store i1 false, ptr %retval, align 1
  br label %return

if.end28:                                         ; preds = %land.lhs.true25, %if.end23
  %15 = load i32, ptr %cp.addr, align 4
  %cmp29 = icmp ule i32 195102, %15
  br i1 %cmp29, label %land.lhs.true30, label %if.end33

land.lhs.true30:                                  ; preds = %if.end28
  %16 = load i32, ptr %cp.addr, align 4
  %cmp31 = icmp ult i32 %16, 196608
  br i1 %cmp31, label %if.then32, label %if.end33

if.then32:                                        ; preds = %land.lhs.true30
  store i1 false, ptr %retval, align 1
  br label %return

if.end33:                                         ; preds = %land.lhs.true30, %if.end28
  %17 = load i32, ptr %cp.addr, align 4
  %cmp34 = icmp ule i32 201547, %17
  br i1 %cmp34, label %land.lhs.true35, label %if.end38

land.lhs.true35:                                  ; preds = %if.end33
  %18 = load i32, ptr %cp.addr, align 4
  %cmp36 = icmp ult i32 %18, 917760
  br i1 %cmp36, label %if.then37, label %if.end38

if.then37:                                        ; preds = %land.lhs.true35
  store i1 false, ptr %retval, align 1
  br label %return

if.end38:                                         ; preds = %land.lhs.true35, %if.end33
  %19 = load i32, ptr %cp.addr, align 4
  %cmp39 = icmp ule i32 918000, %19
  br i1 %cmp39, label %land.lhs.true40, label %if.end43

land.lhs.true40:                                  ; preds = %if.end38
  %20 = load i32, ptr %cp.addr, align 4
  %cmp41 = icmp ult i32 %20, 1114112
  br i1 %cmp41, label %if.then42, label %if.end43

if.then42:                                        ; preds = %land.lhs.true40
  store i1 false, ptr %retval, align 1
  br label %return

if.end43:                                         ; preds = %land.lhs.true40, %if.end38
  %21 = load i32, ptr %cp.addr, align 4
  %cmp44 = icmp ult i32 %21, 1114112
  store i1 %cmp44, ptr %retval, align 1
  br label %return

return:                                           ; preds = %if.end43, %if.then42, %if.then37, %if.then32, %if.then27, %if.then22, %if.then17, %if.then12, %if.then7, %if.then2, %if.then
  %22 = load i1, ptr %retval, align 1
  ret i1 %22
}