; Function Attrs: mustprogress nofree norecurse nosync nounwind willreturn memory(none) uwtable
define dso_local noundef zeroext i1 @_ZN3fmt2v96detail12is_printableEj(i32 noundef %cp) local_unnamed_addr #11 {
entry:
  %cmp = icmp ult i32 %cp, 65536
  br i1 %cmp, label %if.then, label %if.end

if.then:                                          ; preds = %entry
  %shr.i = lshr i32 %cp, 8
  %0 = trunc i32 %cp to i8
  br label %for.body.i

for.body.i:                                       ; preds = %if.end18.i, %if.then
  %lower_start.024.i = phi i32 [ 0, %if.then ], [ %add.i, %if.end18.i ]
  %i.023.i = phi i64 [ 0, %if.then ], [ %inc20.i, %if.end18.i ]
  %arrayidx.i = getelementptr inbounds %"struct.fmt::v9::detail::singleton", ptr @_ZZN3fmt2v96detail12is_printableEjE11singletons0, i64 %i.023.i
  %s.sroa.0.0.copyload.i = load i8, ptr %arrayidx.i, align 2
  %s.sroa.3.0.arrayidx.sroa_idx.i = getelementptr inbounds i8, ptr %arrayidx.i, i64 1
  %s.sroa.3.0.copyload.i = load i8, ptr %s.sroa.3.0.arrayidx.sroa_idx.i, align 1
  %conv1.i = zext i8 %s.sroa.3.0.copyload.i to i32
  %add.i = add nuw nsw i32 %lower_start.024.i, %conv1.i
  %conv3.i = zext i8 %s.sroa.0.0.copyload.i to i32
  %cmp4.i = icmp ult i32 %shr.i, %conv3.i
  br i1 %cmp4.i, label %for.body26.i.preheader, label %if.end.i

if.end.i:                                         ; preds = %for.body.i
  %cmp7.i = icmp eq i32 %shr.i, %conv3.i
  %cmp1020.i = icmp ne i8 %s.sroa.3.0.copyload.i, 0
  %or.cond.i = select i1 %cmp7.i, i1 %cmp1020.i, i1 false
  br i1 %or.cond.i, label %for.body11.preheader.i, label %if.end18.i

for.body11.preheader.i:                           ; preds = %if.end.i
  %1 = zext nneg i32 %lower_start.024.i to i64
  %2 = zext nneg i32 %add.i to i64
  br label %for.body11.i

for.cond9.i:                                      ; preds = %for.body11.i
  %indvars.iv.next.i = add nuw nsw i64 %indvars.iv.i, 1
  %cmp10.i = icmp ult i64 %indvars.iv.next.i, %2
  br i1 %cmp10.i, label %for.body11.i, label %if.end18.i, !llvm.loop !33

for.body11.i:                                     ; preds = %for.cond9.i, %for.body11.preheader.i
  %indvars.iv.i = phi i64 [ %1, %for.body11.preheader.i ], [ %indvars.iv.next.i, %for.cond9.i ]
  %arrayidx12.i = getelementptr inbounds i8, ptr @_ZZN3fmt2v96detail12is_printableEjE17singletons0_lower, i64 %indvars.iv.i
  %3 = load i8, ptr %arrayidx12.i, align 1
  %cmp15.i = icmp eq i8 %3, %0
  br i1 %cmp15.i, label %return, label %for.cond9.i

if.end18.i:                                       ; preds = %for.cond9.i, %if.end.i
  %inc20.i = add nuw nsw i64 %i.023.i, 1
  %exitcond.not.i = icmp eq i64 %inc20.i, 41
  br i1 %exitcond.not.i, label %for.body26.i.preheader, label %for.body.i, !llvm.loop !34

for.body26.i.preheader:                           ; preds = %if.end18.i, %for.body.i
  br label %for.body26.i

for.body26.i:                                     ; preds = %for.body26.i.preheader, %if.end37.i
  %i23.028.i = phi i64 [ %inc39.i, %if.end37.i ], [ 0, %for.body26.i.preheader ]
  %current.027.i = phi i1 [ %lnot.i, %if.end37.i ], [ true, %for.body26.i.preheader ]
  %xsigned.026.i = phi i32 [ %sub.i, %if.end37.i ], [ %cp, %for.body26.i.preheader ]
  %arrayidx27.i = getelementptr inbounds i8, ptr @_ZZN3fmt2v96detail12is_printableEjE7normal0, i64 %i23.028.i
  %4 = load i8, ptr %arrayidx27.i, align 1
  %conv28.i = zext i8 %4 to i32
  %cmp30.not.i = icmp sgt i8 %4, -1
  br i1 %cmp30.not.i, label %cond.end.i, label %cond.true.i

cond.true.i:                                      ; preds = %for.body26.i
  %and31.i = shl nuw nsw i32 %conv28.i, 8
  %shl.i = and i32 %and31.i, 32512
  %inc32.i = add nuw nsw i64 %i23.028.i, 1
  %arrayidx33.i = getelementptr inbounds i8, ptr @_ZZN3fmt2v96detail12is_printableEjE7normal0, i64 %inc32.i
  %5 = load i8, ptr %arrayidx33.i, align 1
  %conv34.i = zext i8 %5 to i32
  %or.i = or disjoint i32 %shl.i, %conv34.i
  br label %cond.end.i

cond.end.i:                                       ; preds = %cond.true.i, %for.body26.i
  %i23.1.i = phi i64 [ %inc32.i, %cond.true.i ], [ %i23.028.i, %for.body26.i ]
  %cond.i = phi i32 [ %or.i, %cond.true.i ], [ %conv28.i, %for.body26.i ]
  %sub.i = sub nsw i32 %xsigned.026.i, %cond.i
  %cmp35.i = icmp slt i32 %sub.i, 0
  br i1 %cmp35.i, label %return, label %if.end37.i

if.end37.i:                                       ; preds = %cond.end.i
  %lnot.i = xor i1 %current.027.i, true
  %inc39.i = add i64 %i23.1.i, 1
  %cmp25.i = icmp ult i64 %inc39.i, 309
  br i1 %cmp25.i, label %for.body26.i, label %return, !llvm.loop !35

if.end:                                           ; preds = %entry
  %cmp1 = icmp ult i32 %cp, 131072
  br i1 %cmp1, label %if.then2, label %if.end4

if.then2:                                         ; preds = %if.end
  %conv.i35 = and i32 %cp, 65535
  %shr.i36 = lshr i32 %conv.i35, 8
  %6 = trunc i32 %cp to i8
  br label %for.body.i37

for.body.i37:                                     ; preds = %if.end18.i52, %if.then2
  %lower_start.024.i38 = phi i32 [ 0, %if.then2 ], [ %add.i45, %if.end18.i52 ]
  %i.023.i39 = phi i64 [ 0, %if.then2 ], [ %inc20.i53, %if.end18.i52 ]
  %arrayidx.i40 = getelementptr inbounds %"struct.fmt::v9::detail::singleton", ptr @_ZZN3fmt2v96detail12is_printableEjE11singletons1, i64 %i.023.i39
  %s.sroa.0.0.copyload.i41 = load i8, ptr %arrayidx.i40, align 2
  %s.sroa.3.0.arrayidx.sroa_idx.i42 = getelementptr inbounds i8, ptr %arrayidx.i40, i64 1
  %s.sroa.3.0.copyload.i43 = load i8, ptr %s.sroa.3.0.arrayidx.sroa_idx.i42, align 1
  %conv1.i44 = zext i8 %s.sroa.3.0.copyload.i43 to i32
  %add.i45 = add nuw nsw i32 %lower_start.024.i38, %conv1.i44
  %conv3.i46 = zext i8 %s.sroa.0.0.copyload.i41 to i32
  %cmp4.i47 = icmp ult i32 %shr.i36, %conv3.i46
  br i1 %cmp4.i47, label %for.body26.i56.preheader, label %if.end.i48

if.end.i48:                                       ; preds = %for.body.i37
  %cmp7.i49 = icmp eq i32 %shr.i36, %conv3.i46
  %cmp1020.i50 = icmp ne i8 %s.sroa.3.0.copyload.i43, 0
  %or.cond.i51 = select i1 %cmp7.i49, i1 %cmp1020.i50, i1 false
  br i1 %or.cond.i51, label %for.body11.preheader.i80, label %if.end18.i52

for.body11.preheader.i80:                         ; preds = %if.end.i48
  %7 = zext nneg i32 %lower_start.024.i38 to i64
  %8 = zext nneg i32 %add.i45 to i64
  br label %for.body11.i81

for.cond9.i85:                                    ; preds = %for.body11.i81
  %indvars.iv.next.i86 = add nuw nsw i64 %indvars.iv.i82, 1
  %cmp10.i87 = icmp ult i64 %indvars.iv.next.i86, %8
  br i1 %cmp10.i87, label %for.body11.i81, label %if.end18.i52, !llvm.loop !33

for.body11.i81:                                   ; preds = %for.cond9.i85, %for.body11.preheader.i80
  %indvars.iv.i82 = phi i64 [ %7, %for.body11.preheader.i80 ], [ %indvars.iv.next.i86, %for.cond9.i85 ]
  %arrayidx12.i83 = getelementptr inbounds i8, ptr @_ZZN3fmt2v96detail12is_printableEjE17singletons1_lower, i64 %indvars.iv.i82
  %9 = load i8, ptr %arrayidx12.i83, align 1
  %cmp15.i84 = icmp eq i8 %9, %6
  br i1 %cmp15.i84, label %return, label %for.cond9.i85

if.end18.i52:                                     ; preds = %for.cond9.i85, %if.end.i48
  %inc20.i53 = add nuw nsw i64 %i.023.i39, 1
  %exitcond.not.i54 = icmp eq i64 %inc20.i53, 38
  br i1 %exitcond.not.i54, label %for.body26.i56.preheader, label %for.body.i37, !llvm.loop !34

for.body26.i56.preheader:                         ; preds = %if.end18.i52, %for.body.i37
  br label %for.body26.i56

for.body26.i56:                                   ; preds = %for.body26.i56.preheader, %if.end37.i75
  %i23.028.i57 = phi i64 [ %inc39.i77, %if.end37.i75 ], [ 0, %for.body26.i56.preheader ]
  %current.027.i58 = phi i1 [ %lnot.i76, %if.end37.i75 ], [ true, %for.body26.i56.preheader ]
  %xsigned.026.i59 = phi i32 [ %sub.i73, %if.end37.i75 ], [ %conv.i35, %for.body26.i56.preheader ]
  %arrayidx27.i60 = getelementptr inbounds i8, ptr @_ZZN3fmt2v96detail12is_printableEjE7normal1, i64 %i23.028.i57
  %10 = load i8, ptr %arrayidx27.i60, align 1
  %conv28.i61 = zext i8 %10 to i32
  %cmp30.not.i62 = icmp sgt i8 %10, -1
  br i1 %cmp30.not.i62, label %cond.end.i70, label %cond.true.i63

cond.true.i63:                                    ; preds = %for.body26.i56
  %and31.i64 = shl nuw nsw i32 %conv28.i61, 8
  %shl.i65 = and i32 %and31.i64, 32512
  %inc32.i66 = add nuw nsw i64 %i23.028.i57, 1
  %arrayidx33.i67 = getelementptr inbounds i8, ptr @_ZZN3fmt2v96detail12is_printableEjE7normal1, i64 %inc32.i66
  %11 = load i8, ptr %arrayidx33.i67, align 1
  %conv34.i68 = zext i8 %11 to i32
  %or.i69 = or disjoint i32 %shl.i65, %conv34.i68
  br label %cond.end.i70

cond.end.i70:                                     ; preds = %cond.true.i63, %for.body26.i56
  %i23.1.i71 = phi i64 [ %inc32.i66, %cond.true.i63 ], [ %i23.028.i57, %for.body26.i56 ]
  %cond.i72 = phi i32 [ %or.i69, %cond.true.i63 ], [ %conv28.i61, %for.body26.i56 ]
  %sub.i73 = sub nsw i32 %xsigned.026.i59, %cond.i72
  %cmp35.i74 = icmp slt i32 %sub.i73, 0
  br i1 %cmp35.i74, label %return, label %if.end37.i75

if.end37.i75:                                     ; preds = %cond.end.i70
  %lnot.i76 = xor i1 %current.027.i58, true
  %inc39.i77 = add i64 %i23.1.i71, 1
  %cmp25.i78 = icmp ult i64 %inc39.i77, 419
  br i1 %cmp25.i78, label %for.body26.i56, label %return, !llvm.loop !35

if.end4:                                          ; preds = %if.end
  %12 = insertelement <4 x i32> poison, i32 %cp, i64 0
  %13 = shufflevector <4 x i32> %12, <4 x i32> poison, <4 x i32> zeroinitializer
  %14 = add <4 x i32> %13, <i32 -177973, i32 -173790, i32 -183970, i32 -191457>
  %15 = and i32 %cp, -2
  %or.cond2 = icmp ne i32 %15, 178206
  %16 = icmp ult <4 x i32> %14, <i32 11, i32 34, i32 14, i32 3103>
  %17 = add i32 %cp, -196608
  %or.cond5 = icmp ult i32 %17, -1506
  %18 = add i32 %cp, -917760
  %or.cond6 = icmp ult i32 %18, -716213
  %19 = add i32 %cp, -1114112
  %or.cond7 = icmp ult i32 %19, -196112
  %20 = bitcast <4 x i1> %16 to i4
  %21 = icmp eq i4 %20, 0
  %op.rdx.not109 = and i1 %21, %or.cond5
  %op.rdx105.not110 = and i1 %or.cond6, %or.cond7
  %op.rdx106.not108 = and i1 %op.rdx.not109, %op.rdx105.not110
  %op.rdx107.not = and i1 %op.rdx106.not108, %or.cond2
  %cmp41 = icmp ult i32 %cp, 1114112
  %spec.select = and i1 %cmp41, %op.rdx107.not
  br label %return

return:                                           ; preds = %for.body11.i81, %if.end37.i75, %cond.end.i70, %for.body11.i, %if.end37.i, %cond.end.i, %if.end4
  %retval.0 = phi i1 [ %spec.select, %if.end4 ], [ %lnot.i, %if.end37.i ], [ %current.027.i, %cond.end.i ], [ false, %for.body11.i ], [ %lnot.i76, %if.end37.i75 ], [ %current.027.i58, %cond.end.i70 ], [ false, %for.body11.i81 ]
  ret i1 %retval.0
}